target datalayout = "e-m:e-p270:32:32-p271:32:32-p272:64:64-i64:64-i128:128-f80:128-n8:16:32:64-S128"
target triple = "x86_64-pc-linux-gnu"

%struct.FxuListLit = type { ptr, ptr, i32 }
%struct.FxuVar = type { i32, i32, ptr, ptr, %struct.FxuListLit, ptr, ptr, ptr }

; Function Attrs: nounwind uwtable
define void @Fxu_PairAllocStorage(ptr noundef %0, i32 noundef %1) #0 {
  %3 = alloca ptr, align 8
  %4 = alloca i32, align 4
  %5 = alloca i32, align 4
  store ptr %0, ptr %3, align 8, !tbaa !37
  store i32 %1, ptr %4, align 4, !tbaa !25
  call void @llvm.lifetime.start.p0(i64 4, ptr %5) #6
  %6 = load i32, ptr %4, align 4, !tbaa !25
  %7 = load ptr, ptr %3, align 8, !tbaa !37
  %8 = getelementptr inbounds nuw %struct.FxuVar, ptr %7, i32 0, i32 1
  store i32 %6, ptr %8, align 4, !tbaa !38
  %9 = load i32, ptr %4, align 4, !tbaa !25
  %10 = sext i32 %9 to i64
  %11 = mul i64 8, %10
  %12 = call noalias ptr @malloc(i64 noundef %11) #7
  %13 = load ptr, ptr %3, align 8, !tbaa !37
  %14 = getelementptr inbounds nuw %struct.FxuVar, ptr %13, i32 0, i32 3
  store ptr %12, ptr %14, align 8, !tbaa !41
  %15 = load i32, ptr %4, align 4, !tbaa !25
  %16 = load i32, ptr %4, align 4, !tbaa !25
  %17 = mul nsw i32 %15, %16
  %18 = sext i32 %17 to i64
  %19 = mul i64 8, %18
  %20 = call noalias ptr @malloc(i64 noundef %19) #7
  %21 = load ptr, ptr %3, align 8, !tbaa !37
  %22 = getelementptr inbounds nuw %struct.FxuVar, ptr %21, i32 0, i32 3
  %23 = load ptr, ptr %22, align 8, !tbaa !41
  %24 = getelementptr inbounds ptr, ptr %23, i64 0
  store ptr %20, ptr %24, align 8, !tbaa !42
  %25 = load ptr, ptr %3, align 8, !tbaa !37
  %26 = getelementptr inbounds nuw %struct.FxuVar, ptr %25, i32 0, i32 3
  %27 = load ptr, ptr %26, align 8, !tbaa !41
  %28 = getelementptr inbounds ptr, ptr %27, i64 0
  %29 = load ptr, ptr %28, align 8, !tbaa !42
  %30 = load i32, ptr %4, align 4, !tbaa !25
  %31 = sext i32 %30 to i64
  %32 = mul i64 8, %31
  %33 = load i32, ptr %4, align 4, !tbaa !25
  %34 = sext i32 %33 to i64
  %35 = mul i64 %32, %34
  call void @llvm.memset.p0.i64(ptr align 8 %29, i8 0, i64 %35, i1 false)
  store i32 1, ptr %5, align 4, !tbaa !25
  br label %36

36:                                               ; preds = %58, %2
  %37 = load i32, ptr %5, align 4, !tbaa !25
  %38 = load i32, ptr %4, align 4, !tbaa !25
  %39 = icmp slt i32 %37, %38
  br i1 %39, label %40, label %61

40:                                               ; preds = %36
  %41 = load ptr, ptr %3, align 8, !tbaa !37
  %42 = getelementptr inbounds nuw %struct.FxuVar, ptr %41, i32 0, i32 3
  %43 = load ptr, ptr %42, align 8, !tbaa !41
  %44 = load i32, ptr %5, align 4, !tbaa !25
  %45 = sub nsw i32 %44, 1
  %46 = sext i32 %45 to i64
  %47 = getelementptr inbounds ptr, ptr %43, i64 %46
  %48 = load ptr, ptr %47, align 8, !tbaa !42
  %49 = load i32, ptr %4, align 4, !tbaa !25
  %50 = sext i32 %49 to i64
  %51 = getelementptr inbounds ptr, ptr %48, i64 %50
  %52 = load ptr, ptr %3, align 8, !tbaa !37
  %53 = getelementptr inbounds nuw %struct.FxuVar, ptr %52, i32 0, i32 3
  %54 = load ptr, ptr %53, align 8, !tbaa !41
  %55 = load i32, ptr %5, align 4, !tbaa !25
  %56 = sext i32 %55 to i64
  %57 = getelementptr inbounds ptr, ptr %54, i64 %56
  store ptr %51, ptr %57, align 8, !tbaa !42
  br label %58

58:                                               ; preds = %40
  %59 = load i32, ptr %5, align 4, !tbaa !25
  %60 = add nsw i32 %59, 1
  store i32 %60, ptr %5, align 4, !tbaa !25
  br label %36, !llvm.loop !44

61:                                               ; preds = %36
  call void @llvm.lifetime.end.p0(i64 4, ptr %5) #6
  ret void
}