; Function Attrs: nofree nounwind memory(readwrite, argmem: write) uwtable
define void @Fxu_PairAllocStorage(ptr noundef writeonly captures(none) initializes((4, 8), (16, 24)) %0, i32 noundef %1) local_unnamed_addr #4 {
  %3 = getelementptr inbounds nuw i8, ptr %0, i64 4
  store i32 %1, ptr %3, align 4, !tbaa !30
  %4 = sext i32 %1 to i64
  %5 = shl nsw i64 %4, 3
  %6 = tail call noalias ptr @malloc(i64 noundef %5) #14
  %7 = getelementptr inbounds nuw i8, ptr %0, i64 16
  store ptr %6, ptr %7, align 8, !tbaa !33
  %8 = mul nsw i32 %1, %1
  %9 = zext nneg i32 %8 to i64
  %10 = shl nuw nsw i64 %9, 3
  %11 = tail call noalias ptr @malloc(i64 noundef %10) #14
  store ptr %11, ptr %6, align 8, !tbaa !34
  %12 = mul i64 %5, %4
  tail call void @llvm.memset.p0.i64(ptr align 8 %11, i8 0, i64 %12, i1 false)
  %13 = icmp sgt i32 %1, 1
  br i1 %13, label %.lr.ph.preheader, label %._crit_edge

.lr.ph.preheader:                                 ; preds = %2
  %wide.trip.count = zext nneg i32 %1 to i64
  %load_initial = load ptr, ptr %6, align 8
  br label %.lr.ph

.lr.ph:                                           ; preds = %.lr.ph.preheader, %.lr.ph
  %store_forwarded = phi ptr [ %load_initial, %.lr.ph.preheader ], [ %15, %.lr.ph ]
  %indvars.iv = phi i64 [ 1, %.lr.ph.preheader ], [ %indvars.iv.next, %.lr.ph ]
  %14 = getelementptr ptr, ptr %6, i64 %indvars.iv
  %15 = getelementptr inbounds nuw ptr, ptr %store_forwarded, i64 %4
  store ptr %15, ptr %14, align 8, !tbaa !34
  %indvars.iv.next = add nuw nsw i64 %indvars.iv, 1
  %exitcond.not = icmp eq i64 %indvars.iv.next, %wide.trip.count
  br i1 %exitcond.not, label %._crit_edge, label %.lr.ph, !llvm.loop !36

._crit_edge:                                      ; preds = %.lr.ph, %2
  ret void
}